; Function Attrs: mustprogress uwtable
define internal void @_ZN11opencv_testL47gtest_feature2d_detectAndExtract_EvalGenerator_B5cxx11Ev(ptr dead_on_unwind noalias writable sret(%"class.testing::internal::ParamGenerator") align 8 %0) #3 {
  %2 = alloca %"class.testing::internal::CartesianProductHolder2.119", align 16
  store <4 x i32> <i32 13, i32 14, i32 15, i32 16>, ptr %2, align 16, !alias.scope !32
  %3 = getelementptr inbounds i8, ptr %2, i64 16
  store i32 17, ptr %3, align 16, !alias.scope !32
  %4 = getelementptr inbounds i8, ptr %2, i64 20
  store i32 18, ptr %4, align 4, !alias.scope !32
  %5 = getelementptr inbounds i8, ptr %2, i64 24
  store i32 19, ptr %5, align 8, !alias.scope !32
  %6 = getelementptr inbounds i8, ptr %2, i64 32
  store ptr @.str.49, ptr %6, align 16, !alias.scope !32
  %7 = getelementptr inbounds i8, ptr %2, i64 40
  store ptr @.str.50, ptr %7, align 8, !alias.scope !32
  %8 = getelementptr inbounds i8, ptr %2, i64 48
  store ptr @.str.51, ptr %8, align 16, !alias.scope !32
  call fastcc void @_ZNK7testing8internal23CartesianProductHolder2INS0_11ValueArray7IN11opencv_test13Feature2DValsES4_S4_S4_S4_S4_S4_EENS0_11ValueArray3IPKcS8_S8_EEEcvNS0_14ParamGeneratorISt5tupleIJT_T0_EEEEINS3_12_GLOBAL__N_113Feature2DTypeENSt7__cxx1112basic_stringIcSt11char_traitsIcESaIcEEEEEv(ptr dead_on_unwind noalias writable align 8 %0, ptr noundef nonnull align 8 dereferenceable(56) %2)
  ret void
}